; Function Attrs: mustprogress uwtable
define hidden noundef double @_ZNK3euf6solver10get_rewardEN3sat7literalEmRNS1_16literal_occs_funE(ptr noundef nonnull readnone align 8 dereferenceable(9136) %this, i32 %l.coerce, i64 noundef %idx, ptr noundef nonnull align 8 dereferenceable(8) %occs) unnamed_addr #3 align 2 {
entry:
  %0 = inttoptr i64 %idx to ptr
  %1 = load ptr, ptr %0, align 8
  %cmp = icmp eq ptr %1, %this
  br i1 %cmp, label %cond.end, label %cond.false

cond.false:                                       ; preds = %entry
  %vtable = load ptr, ptr %1, align 8
  %vfn = getelementptr inbounds i8, ptr %vtable, i64 72
  %2 = load ptr, ptr %vfn, align 8
  %call3 = tail call noundef double %2(ptr noundef nonnull align 8 dereferenceable(32) %1, i32 %l.coerce, i64 noundef %idx, ptr noundef nonnull align 8 dereferenceable(8) %occs)
  br label %cond.end

cond.end:                                         ; preds = %entry, %cond.false
  %cond = phi double [ %call3, %cond.false ], [ 0.000000e+00, %entry ]
  ret double %cond
}